; Function Attrs: mustprogress uwtable
define hidden noundef nonnull align 8 dereferenceable(552) ptr @_ZN4LIEF10FileStreamaSEOS0_(ptr noundef nonnull returned align 8 dereferenceable(552) %0, ptr noundef nonnull align 8 dereferenceable(552) %1) local_unnamed_addr #3 align 2 {
  %3 = getelementptr inbounds i8, ptr %0, i64 8
  %4 = getelementptr inbounds i8, ptr %1, i64 8
  tail call void @llvm.memcpy.p0.p0.i64(ptr noundef nonnull align 8 dereferenceable(16) %3, ptr noundef nonnull align 8 dereferenceable(16) %4, i64 16, i1 false)
  %5 = getelementptr inbounds i8, ptr %0, i64 24
  %6 = getelementptr inbounds i8, ptr %1, i64 24
  %7 = tail call noundef nonnull align 8 dereferenceable(256) ptr @_ZNSt14basic_ifstreamIcSt11char_traitsIcEEaSEOS2_(ptr noundef nonnull align 8 dereferenceable(256) %5, ptr noundef nonnull align 8 dereferenceable(256) %6)
  %8 = getelementptr inbounds i8, ptr %1, i64 544
  %9 = load i64, ptr %8, align 8
  %10 = getelementptr inbounds i8, ptr %0, i64 544
  store i64 %9, ptr %10, align 8
  ret ptr %0
}